target datalayout = "e-m:e-p270:32:32-p271:32:32-p272:64:64-i64:64-i128:128-f80:128-n8:16:32:64-S128"
target triple = "x86_64-pc-linux-gnu"

; Function Attrs: nounwind uwtable
define void @PaPulseAudio_UnLock(ptr noundef %0) #0 {
  %2 = alloca ptr, align 8
  store ptr %0, ptr %2, align 8, !tbaa !39
  %3 = load ptr, ptr %2, align 8, !tbaa !39
  %4 = call i32 @pa_threaded_mainloop_in_thread(ptr noundef %3)
  %5 = icmp ne i32 %4, 0
  br i1 %5, label %8, label %6

6:                                                ; preds = %1
  %7 = load ptr, ptr %2, align 8, !tbaa !39
  call void @pa_threaded_mainloop_unlock(ptr noundef %7)
  br label %9

8:                                                ; preds = %1
  br label %9

9:                                                ; preds = %8, %6
  ret void
}

; Function Attrs: nounwind uwtable
define void @PaPulseAudio_Lock(ptr noundef %0) #0 {
  %2 = alloca ptr, align 8
  store ptr %0, ptr %2, align 8, !tbaa !39
  %3 = load ptr, ptr %2, align 8, !tbaa !39
  %4 = call i32 @pa_threaded_mainloop_in_thread(ptr noundef %3)
  %5 = icmp ne i32 %4, 0
  br i1 %5, label %8, label %6

6:                                                ; preds = %1
  %7 = load ptr, ptr %2, align 8, !tbaa !39
  call void @pa_threaded_mainloop_lock(ptr noundef %7)
  br label %9

8:                                                ; preds = %1
  br label %9

9:                                                ; preds = %8, %6
  ret void
}

; Function Attrs: nounwind uwtable
define i32 @_PaPulseAudio_WaitStreamState(ptr noundef %0, ptr noundef %1) #0 {
  %3 = alloca ptr, align 8
  %4 = alloca ptr, align 8
  %5 = alloca i32, align 4
  %6 = alloca i32, align 4
  %7 = alloca i32, align 4
  store ptr %0, ptr %3, align 8, !tbaa !39
  store ptr %1, ptr %4, align 8, !tbaa !3
  call void @llvm.lifetime.start.p0(i64 4, ptr %5) #6
  store i32 0, ptr %5, align 4, !tbaa !10
  call void @llvm.lifetime.start.p0(i64 4, ptr %6) #6
  store i32 0, ptr %6, align 4, !tbaa !10
  call void @llvm.lifetime.start.p0(i64 4, ptr %7) #6
  store i32 0, ptr %7, align 4, !tbaa !10
  br label %8

8:                                                ; preds = %27, %2
  %9 = load i32, ptr %6, align 4, !tbaa !10
  %10 = icmp ult i32 %9, 1000
  br i1 %10, label %11, label %28

11:                                               ; preds = %8
  %12 = load ptr, ptr %3, align 8, !tbaa !39
  call void @pa_threaded_mainloop_wait(ptr noundef %12)
  %13 = load ptr, ptr %3, align 8, !tbaa !39
  call void @PaPulseAudio_Lock(ptr noundef %13)
  %14 = load ptr, ptr %4, align 8, !tbaa !3
  %15 = call i32 @pa_stream_get_state(ptr noundef %14)
  store i32 %15, ptr %5, align 4, !tbaa !10
  %16 = load ptr, ptr %3, align 8, !tbaa !39
  call void @PaPulseAudio_UnLock(ptr noundef %16)
  %17 = load i32, ptr %5, align 4, !tbaa !10
  switch i32 %17, label %21 [
    i32 2, label %18
    i32 3, label %19
    i32 4, label %20
  ]

18:                                               ; preds = %11
  store i32 0, ptr %7, align 4, !tbaa !10
  store i32 10000, ptr %6, align 4, !tbaa !10
  br label %21

19:                                               ; preds = %11
  store i32 -10000, ptr %7, align 4, !tbaa !10
  store i32 10000, ptr %6, align 4, !tbaa !10
  br label %21

20:                                               ; preds = %11
  store i32 -10000, ptr %7, align 4, !tbaa !10
  store i32 10000, ptr %6, align 4, !tbaa !10
  br label %21

21:                                               ; preds = %11, %20, %19, %18
  %22 = load i32, ptr %5, align 4, !tbaa !10
  %23 = icmp ne i32 %22, 1
  br i1 %23, label %24, label %27

24:                                               ; preds = %21
  %25 = load i32, ptr %6, align 4, !tbaa !10
  %26 = add i32 %25, 1
  store i32 %26, ptr %6, align 4, !tbaa !10
  br label %27

27:                                               ; preds = %24, %21
  br label %8, !llvm.loop !74

28:                                               ; preds = %8
  %29 = load i32, ptr %7, align 4, !tbaa !10
  call void @llvm.lifetime.end.p0(i64 4, ptr %7) #6
  call void @llvm.lifetime.end.p0(i64 4, ptr %6) #6
  call void @llvm.lifetime.end.p0(i64 4, ptr %5) #6
  ret i32 %29
}