; Function Attrs: nounwind uwtable
define range(i32 -10000, 1) i32 @_PaPulseAudio_WaitStreamState(ptr noundef %0, ptr noundef %1) local_unnamed_addr #0 {
  br label %3

3:                                                ; preds = %2, %11
  %.012 = phi i32 [ 0, %2 ], [ %.1, %11 ]
  %.0811 = phi i32 [ 0, %2 ], [ %spec.select, %11 ]
  tail call void @pa_threaded_mainloop_wait(ptr noundef %0) #5
  %4 = tail call i32 @pa_threaded_mainloop_in_thread(ptr noundef %0) #5
  %.not.i = icmp eq i32 %4, 0
  br i1 %.not.i, label %5, label %PaPulseAudio_Lock.exit

5:                                                ; preds = %3
  tail call void @pa_threaded_mainloop_lock(ptr noundef %0) #5
  br label %PaPulseAudio_Lock.exit

PaPulseAudio_Lock.exit:                           ; preds = %3, %5
  %6 = tail call i32 @pa_stream_get_state(ptr noundef %1) #5
  %7 = tail call i32 @pa_threaded_mainloop_in_thread(ptr noundef %0) #5
  %.not.i10 = icmp eq i32 %7, 0
  br i1 %.not.i10, label %8, label %PaPulseAudio_UnLock.exit

8:                                                ; preds = %PaPulseAudio_Lock.exit
  tail call void @pa_threaded_mainloop_unlock(ptr noundef %0) #5
  br label %PaPulseAudio_UnLock.exit

PaPulseAudio_UnLock.exit:                         ; preds = %PaPulseAudio_Lock.exit, %8
  %switch.tableidx = add i32 %6, -2
  %9 = icmp ult i32 %switch.tableidx, 3
  br i1 %9, label %switch.lookup, label %11

switch.lookup:                                    ; preds = %PaPulseAudio_UnLock.exit
  %10 = zext nneg i32 %switch.tableidx to i64
  %switch.gep = getelementptr inbounds nuw [3 x i32], ptr @switch.table._PaPulseAudio_WaitStreamState, i64 0, i64 %10
  %switch.load = load i32, ptr %switch.gep, align 4
  br label %11

11:                                               ; preds = %switch.lookup, %PaPulseAudio_UnLock.exit
  %.19 = phi i32 [ %.0811, %PaPulseAudio_UnLock.exit ], [ 10000, %switch.lookup ]
  %.1 = phi i32 [ %.012, %PaPulseAudio_UnLock.exit ], [ %switch.load, %switch.lookup ]
  %.not = icmp ne i32 %6, 1
  %12 = zext i1 %.not to i32
  %spec.select = add nuw nsw i32 %.19, %12
  %13 = icmp samesign ult i32 %spec.select, 1000
  br i1 %13, label %3, label %14, !llvm.loop !65

14:                                               ; preds = %11
  ret i32 %.1
}